; Function Attrs: nounwind uwtable
define internal void @_ZThn8_N12_GLOBAL__N_14FileD0Ev(ptr noundef %0) unnamed_addr #10 align 2 personality ptr @__gxx_personality_v0 {
  %2 = getelementptr inbounds i8, ptr %0, i64 -8
  store ptr getelementptr inbounds ({ [12 x ptr], [11 x ptr] }, ptr @_ZTVN12_GLOBAL__N_14FileE, i64 0, i32 0, i64 6), ptr %2, align 8
  store ptr getelementptr inbounds ({ [12 x ptr], [11 x ptr] }, ptr @_ZTVN12_GLOBAL__N_14FileE, i64 0, i32 1, i64 6), ptr %0, align 8
  %3 = getelementptr inbounds i8, ptr %0, i64 16
  %4 = load i8, ptr %3, align 8
  %5 = and i8 %4, 1
  %.not.i.i.i.i = icmp eq i8 %5, 0
  br i1 %.not.i.i.i.i, label %_ZN12_GLOBAL__N_14FileD0Ev.exit, label %6

6:                                                ; preds = %1
  %7 = getelementptr inbounds i8, ptr %0, i64 104
  %8 = atomicrmw xchg ptr %7, i8 1 seq_cst, align 1
  %9 = and i8 %8, 1
  %.not1.i.i.i.i = icmp eq i8 %9, 0
  br i1 %.not1.i.i.i.i, label %10, label %_ZN12_GLOBAL__N_14FileD0Ev.exit

10:                                               ; preds = %6
  %11 = getelementptr inbounds i8, ptr %0, i64 8
  %12 = load ptr, ptr %11, align 8
  %13 = tail call i32 @fclose(ptr noundef %12)
  br label %_ZN12_GLOBAL__N_14FileD0Ev.exit

_ZN12_GLOBAL__N_14FileD0Ev.exit:                  ; preds = %1, %6, %10
  tail call void @_ZdlPv(ptr noundef nonnull %2) #24
  ret void
}